; Function Attrs: nounwind uwtable
define hidden void @php_dom_named_node_map_get_named_item_into_zval(ptr noundef readonly %0, ptr noundef %1, ptr noundef %2) local_unnamed_addr #0 {
  %.not.i = icmp eq ptr %0, null
  br i1 %.not.i, label %php_dom_named_node_map_get_named_item.exit.thread, label %4

4:                                                ; preds = %3
  %5 = getelementptr inbounds i8, ptr %0, i64 24
  %6 = load i32, ptr %5, align 8
  switch i32 %6, label %20 [
    i32 12, label %7
    i32 6, label %7
  ]

7:                                                ; preds = %4, %4
  %8 = getelementptr inbounds i8, ptr %0, i64 32
  %9 = load ptr, ptr %8, align 8
  %.not25.i = icmp eq ptr %9, null
  br i1 %.not25.i, label %php_dom_named_node_map_get_named_item.exit.thread, label %10

10:                                               ; preds = %7
  %11 = icmp ne i32 %6, 6
  %12 = tail call ptr @xmlHashLookup(ptr noundef nonnull %9, ptr noundef %1) #3
  %.not26.i = icmp ne ptr %12, null
  %or.cond.i = select i1 %11, i1 %.not26.i, i1 false
  br i1 %or.cond.i, label %13, label %php_dom_named_node_map_get_named_item.exit

13:                                               ; preds = %10
  %14 = load ptr, ptr %12, align 8
  %15 = getelementptr inbounds i8, ptr %12, i64 8
  %16 = load ptr, ptr %15, align 8
  %17 = getelementptr inbounds i8, ptr %12, i64 16
  %18 = load ptr, ptr %17, align 8
  %19 = tail call ptr @create_notation(ptr noundef %14, ptr noundef %16, ptr noundef %18) #3
  br label %php_dom_named_node_map_get_named_item.exit

20:                                               ; preds = %4
  %21 = load ptr, ptr %0, align 8
  %22 = tail call ptr @dom_object_get_node(ptr noundef %21) #3
  %.not24.i = icmp eq ptr %22, null
  br i1 %.not24.i, label %php_dom_named_node_map_get_named_item.exit.thread, label %23

23:                                               ; preds = %20
  %24 = tail call ptr @xmlHasProp(ptr noundef nonnull %22, ptr noundef %1) #3
  br label %php_dom_named_node_map_get_named_item.exit

php_dom_named_node_map_get_named_item.exit:       ; preds = %10, %13, %23
  %.0.i = phi ptr [ %19, %13 ], [ %24, %23 ], [ %12, %10 ]
  %.not = icmp eq ptr %.0.i, null
  br i1 %.not, label %php_dom_named_node_map_get_named_item.exit.thread, label %25

25:                                               ; preds = %php_dom_named_node_map_get_named_item.exit
  %26 = load ptr, ptr %0, align 8
  %27 = tail call zeroext i1 @php_dom_create_object(ptr noundef nonnull %.0.i, ptr noundef %2, ptr noundef %26) #3
  br label %29

php_dom_named_node_map_get_named_item.exit.thread: ; preds = %3, %20, %7, %php_dom_named_node_map_get_named_item.exit
  %28 = getelementptr inbounds i8, ptr %2, i64 8
  store i32 1, ptr %28, align 8
  br label %29

29:                                               ; preds = %php_dom_named_node_map_get_named_item.exit.thread, %25
  ret void
}